; Function Attrs: mustprogress nofree norecurse nosync nounwind willreturn memory(none) uwtable
define internal ptr @dsa_import_types(i32 noundef %0) #1 {
  %2 = and i32 %0, 132
  %.not.i = icmp ne i32 %2, 0
  %spec.select.i = zext i1 %.not.i to i32
  %3 = and i32 %0, 3
  %.not5.i = icmp eq i32 %3, 0
  %4 = or disjoint i32 %spec.select.i, 2
  %.1.i = select i1 %.not5.i, i32 %spec.select.i, i32 %4
  %5 = zext nneg i32 %.1.i to i64
  %6 = getelementptr inbounds nuw [4 x ptr], ptr @dsa_types, i64 0, i64 %5
  %7 = load ptr, ptr %6, align 8, !tbaa !47
  ret ptr %7
}